; Function Attrs: nounwind uwtable
define range(i32 -5, -2147483648) i32 @Java_sun_nio_ch_IOUtil_write1(ptr noundef %0, ptr nocapture noundef readnone %1, i32 noundef %2, i8 noundef signext %3) local_unnamed_addr #0 {
  %5 = alloca i8, align 1
  store i8 %3, ptr %5, align 1
  %6 = call i64 @write(i32 noundef %2, ptr noundef nonnull %5, i64 noundef 1) #7
  %7 = trunc i64 %6 to i32
  %8 = icmp sgt i32 %7, 0
  br i1 %8, label %convertReturnVal.exit, label %9

9:                                                ; preds = %4
  %10 = icmp eq i32 %7, 0
  br i1 %10, label %convertReturnVal.exit, label %11

11:                                               ; preds = %9
  %12 = tail call ptr @__errno_location() #8
  %13 = load i32, ptr %12, align 4
  switch i32 %13, label %15 [
    i32 11, label %convertReturnVal.exit
    i32 4, label %14
  ]

14:                                               ; preds = %11
  br label %convertReturnVal.exit

15:                                               ; preds = %11
  tail call void @JNU_ThrowIOExceptionWithLastError(ptr noundef %0, ptr noundef nonnull @.str.10) #7
  br label %convertReturnVal.exit

convertReturnVal.exit:                            ; preds = %9, %4, %11, %14, %15
  %.0.i = phi i32 [ -3, %14 ], [ -5, %15 ], [ %7, %4 ], [ -2, %11 ], [ 0, %9 ]
  ret i32 %.0.i
}